; Function Attrs: mustprogress uwtable
define hidden void @_ZN7datalog16product_relation8add_factERKNS_13relation_factE(ptr noundef nonnull readonly align 8 captures(none) dereferenceable(48) %0, ptr noundef nonnull align 8 dereferenceable(16) %1) unnamed_addr #3 align 2 {
  %3 = getelementptr inbounds nuw i8, ptr %0, i64 32
  br label %4

4:                                                ; preds = %13, %2
  %indvars.iv = phi i64 [ %indvars.iv.next, %13 ], [ 0, %2 ]
  %5 = load ptr, ptr %3, align 8, !tbaa !89
  %6 = icmp eq ptr %5, null
  br i1 %6, label %_ZNK7datalog16product_relation4sizeEv.exit, label %7

7:                                                ; preds = %4
  %8 = getelementptr inbounds i8, ptr %5, i64 -4
  %9 = load i32, ptr %8, align 4, !tbaa !39
  %10 = zext i32 %9 to i64
  br label %_ZNK7datalog16product_relation4sizeEv.exit

_ZNK7datalog16product_relation4sizeEv.exit:       ; preds = %4, %7
  %.0.i.i = phi i64 [ %10, %7 ], [ 0, %4 ]
  %11 = icmp samesign ult i64 %indvars.iv, %.0.i.i
  br i1 %11, label %13, label %12

12:                                               ; preds = %_ZNK7datalog16product_relation4sizeEv.exit
  ret void

13:                                               ; preds = %_ZNK7datalog16product_relation4sizeEv.exit
  %14 = getelementptr inbounds nuw ptr, ptr %5, i64 %indvars.iv
  %15 = load ptr, ptr %14, align 8, !tbaa !92
  %16 = load ptr, ptr %15, align 8, !tbaa !17
  %17 = getelementptr inbounds nuw i8, ptr %16, i64 40
  %18 = load ptr, ptr %17, align 8
  tail call void %18(ptr noundef nonnull align 8 dereferenceable(28) %15, ptr noundef nonnull align 8 dereferenceable(16) %1)
  %indvars.iv.next = add nuw nsw i64 %indvars.iv, 1
  br label %4, !llvm.loop !176
}